	.file	"4-new_dog.c"
	.text
	.globl	_strlen
	.type	_strlen, @function
_strlen:
.LFB6:
	.cfi_startproc
	endbr64
	pushq	%rbp
	.cfi_def_cfa_offset 16
	.cfi_offset 6, -16
	movq	%rsp, %rbp
	.cfi_def_cfa_register 6
	movq	%rdi, -24(%rbp)
	movl	$0, -4(%rbp)
	jmp	.L2
.L3:
	addl	$1, -4(%rbp)
.L2:
	movq	-24(%rbp), %rax
	leaq	1(%rax), %rdx
	movq	%rdx, -24(%rbp)
	movzbl	(%rax), %eax
	testb	%al, %al
	jne	.L3
	movl	-4(%rbp), %eax
	popq	%rbp
	.cfi_def_cfa 7, 8
	ret
	.cfi_endproc
.LFE6:
	.size	_strlen, .-_strlen
	.globl	_strcopy
	.type	_strcopy, @function
_strcopy:
.LFB7:
	.cfi_startproc
	endbr64
	pushq	%rbp
	.cfi_def_cfa_offset 16
	.cfi_offset 6, -16
	movq	%rsp, %rbp
	.cfi_def_cfa_register 6
	movq	%rdi, -24(%rbp)
	movq	%rsi, -32(%rbp)
	movl	$0, -4(%rbp)
	jmp	.L6
.L7:
	movl	-4(%rbp), %eax
	movslq	%eax, %rdx
	movq	-32(%rbp), %rax
	addq	%rdx, %rax
	movl	-4(%rbp), %edx
	movslq	%edx, %rcx
	movq	-24(%rbp), %rdx
	addq	%rcx, %rdx
	movzbl	(%rax), %eax
	movb	%al, (%rdx)
	addl	$1, -4(%rbp)
.L6:
	movl	-4(%rbp), %eax
	movslq	%eax, %rdx
	movq	-32(%rbp), %rax
	addq	%rdx, %rax
	movzbl	(%rax), %eax
	testb	%al, %al
	jne	.L7
	movl	-4(%rbp), %eax
	movslq	%eax, %rdx
	movq	-24(%rbp), %rax
	addq	%rdx, %rax
	movb	$0, (%rax)
	movq	-24(%rbp), %rax
	popq	%rbp
	.cfi_def_cfa 7, 8
	ret
	.cfi_endproc
.LFE7:
	.size	_strcopy, .-_strcopy
	.globl	new_dog
	.type	new_dog, @function
new_dog:
.LFB8:
	.cfi_startproc
	endbr64
	pushq	%rbp
	.cfi_def_cfa_offset 16
	.cfi_offset 6, -16
	movq	%rsp, %rbp
	.cfi_def_cfa_register 6
	subq	$48, %rsp
	movq	%rdi, -24(%rbp)
	movss	%xmm0, -28(%rbp)
	movq	%rsi, -40(%rbp)
	cmpq	$0, -24(%rbp)
	je	.L10
	pxor	%xmm0, %xmm0
	comiss	-28(%rbp), %xmm0
	ja	.L10
	cmpq	$0, -40(%rbp)
	jne	.L11
.L10:
	movl	$0, %eax
	jmp	.L12
.L11:
	movl	$24, %edi
	call	malloc@PLT
	movq	%rax, -8(%rbp)
	cmpq	$0, -8(%rbp)
	jne	.L13
	movl	$0, %eax
	jmp	.L12
.L13:
	movq	-24(%rbp), %rax
	movq	%rax, %rdi
	call	_strlen
	addl	$1, %eax
	cltq
	movq	%rax, %rdi
	call	malloc@PLT
	movq	%rax, %rdx
	movq	-8(%rbp), %rax
	movq	%rdx, (%rax)
	movq	-8(%rbp), %rax
	movq	(%rax), %rax
	testq	%rax, %rax
	jne	.L14
	movq	-8(%rbp), %rax
	movq	%rax, %rdi
	call	free@PLT
	movl	$0, %eax
	jmp	.L12
.L14:
	movq	-40(%rbp), %rax
	movq	%rax, %rdi
	call	_strlen
	addl	$1, %eax
	cltq
	movq	%rax, %rdi
	call	malloc@PLT
	movq	%rax, %rdx
	movq	-8(%rbp), %rax
	movq	%rdx, 16(%rax)
	movq	-8(%rbp), %rax
	movq	16(%rax), %rax
	testq	%rax, %rax
	jne	.L15
	movq	-8(%rbp), %rax
	movq	(%rax), %rax
	movq	%rax, %rdi
	call	free@PLT
	movq	-8(%rbp), %rax
	movq	%rax, %rdi
	call	free@PLT
	movl	$0, %eax
	jmp	.L12
.L15:
	movq	-8(%rbp), %rax
	movq	(%rax), %rax
	movq	-24(%rbp), %rdx
	movq	%rdx, %rsi
	movq	%rax, %rdi
	call	_strcopy
	movq	-8(%rbp), %rdx
	movq	%rax, (%rdx)
	movq	-8(%rbp), %rax
	movss	-28(%rbp), %xmm0
	movss	%xmm0, 8(%rax)
	movq	-8(%rbp), %rax
	movq	16(%rax), %rax
	movq	-40(%rbp), %rdx
	movq	%rdx, %rsi
	movq	%rax, %rdi
	call	_strcopy
	movq	-8(%rbp), %rdx
	movq	%rax, 16(%rdx)
	movq	-8(%rbp), %rax
.L12:
	leave
	.cfi_def_cfa 7, 8
	ret
	.cfi_endproc
.LFE8:
	.size	new_dog, .-new_dog
	.ident	"GCC: (Ubuntu 9.4.0-1ubuntu1~20.04.1) 9.4.0"
	.section	.note.GNU-stack,"",@progbits
	.section	.note.gnu.property,"a"
	.align 8
	.long	 1f - 0f
	.long	 4f - 1f
	.long	 5
0:
	.string	 "GNU"
1:
	.align 8
	.long	 0xc0000002
	.long	 3f - 2f
2:
	.long	 0x3
3:
	.align 8
4:
